; Function Attrs: mustprogress uwtable
define hidden void @_ZNK10macro_util6mk_subEP4exprS1_R7obj_refIS0_11ast_managerE(ptr noundef nonnull align 8 dereferenceable(320) %0, ptr noundef nonnull %1, ptr noundef %2, ptr noundef nonnull align 8 dereferenceable(16) %3) local_unnamed_addr #3 align 2 {
  %5 = alloca [2 x ptr], align 16
  %6 = alloca [2 x ptr], align 16
  %7 = getelementptr inbounds nuw i8, ptr %0, i64 8
  %8 = tail call noundef ptr @_ZNK4expr8get_sortEv(ptr noundef nonnull align 4 dereferenceable(16) %1)
  %9 = tail call noundef zeroext i1 @_ZNK14bv_recognizers10is_bv_sortEPK4sort(ptr noundef nonnull align 4 dereferenceable(4) %7, ptr noundef %8)
  br i1 %9, label %10, label %14

10:                                               ; preds = %4
  %11 = getelementptr inbounds nuw i8, ptr %0, i64 144
  call void @llvm.lifetime.start.p0(i64 16, ptr nonnull %6) #22
  store ptr %1, ptr %6, align 16, !tbaa !73
  %12 = getelementptr inbounds nuw i8, ptr %6, i64 8
  store ptr %2, ptr %12, align 8, !tbaa !73
  %13 = call noundef i32 @_ZN13poly_rewriterI16bv_rewriter_coreE6mk_subEjPKP4exprR7obj_refIS2_11ast_managerE(ptr noundef nonnull align 8 dereferenceable(92) %11, i32 noundef 2, ptr noundef nonnull %6, ptr noundef nonnull align 8 dereferenceable(16) %3)
  call void @llvm.lifetime.end.p0(i64 16, ptr nonnull %6) #22
  br label %18

14:                                               ; preds = %4
  %15 = getelementptr inbounds nuw i8, ptr %0, i64 48
  call void @llvm.lifetime.start.p0(i64 16, ptr nonnull %5) #22
  store ptr %1, ptr %5, align 16, !tbaa !73
  %16 = getelementptr inbounds nuw i8, ptr %5, i64 8
  store ptr %2, ptr %16, align 8, !tbaa !73
  %17 = call noundef i32 @_ZN13poly_rewriterI19arith_rewriter_coreE6mk_subEjPKP4exprR7obj_refIS2_11ast_managerE(ptr noundef nonnull align 8 dereferenceable(84) %15, i32 noundef 2, ptr noundef nonnull %5, ptr noundef nonnull align 8 dereferenceable(16) %3)
  call void @llvm.lifetime.end.p0(i64 16, ptr nonnull %5) #22
  br label %18

18:                                               ; preds = %14, %10
  ret void
}